target datalayout = "e-m:e-p270:32:32-p271:32:32-p272:64:64-i64:64-i128:128-f80:128-n8:16:32:64-S128"
target triple = "x86_64-pc-linux-gnu"

%"class.cv::Vec.24" = type { %"class.cv::Matx.25" }
%"class.cv::Matx.25" = type { [4 x float] }
%"class.cv::Vec.26" = type { %"class.cv::Matx.27" }
%"class.cv::Matx.27" = type { [3 x float] }
%"struct.cv::Matx_SubOp" = type { i8 }

; Function Attrs: inlinehint mustprogress nounwind uwtable
define internal noundef float @_ZN2cvL13saturate_castIfEET_f(float noundef %0) #1 {
  %2 = alloca float, align 4
  store float %0, ptr %2, align 4, !tbaa !15
  %3 = load float, ptr %2, align 4, !tbaa !15
  ret float %3
}

; Function Attrs: inlinehint mustprogress uwtable
define linkonce_odr hidden void @_ZN2cv4MatxIfLi3ELi1EEC2ERKS1_S3_NS_10Matx_SubOpE(ptr noundef nonnull align 4 dereferenceable(12) %0, ptr noundef nonnull align 4 dereferenceable(12) %1, ptr noundef nonnull align 4 dereferenceable(12) %2, ptr noundef %3) unnamed_addr #4 comdat align 2 {
  %5 = alloca ptr, align 8
  %6 = alloca ptr, align 8
  %7 = alloca ptr, align 8
  %8 = alloca ptr, align 8
  %9 = alloca i32, align 4
  store ptr %0, ptr %5, align 8, !tbaa !303
  store ptr %1, ptr %6, align 8, !tbaa !303
  store ptr %2, ptr %7, align 8, !tbaa !303
  store ptr %3, ptr %8, align 8, !tbaa !344
  %10 = load ptr, ptr %5, align 8
  call void @llvm.lifetime.start.p0(i64 4, ptr %9) #22
  store i32 0, ptr %9, align 4, !tbaa !8
  br label %11

11:                                               ; preds = %34, %4
  %12 = load i32, ptr %9, align 4, !tbaa !8
  %13 = icmp slt i32 %12, 3
  br i1 %13, label %15, label %14

14:                                               ; preds = %11
  call void @llvm.lifetime.end.p0(i64 4, ptr %9) #22
  br label %37

15:                                               ; preds = %11
  %16 = load ptr, ptr %6, align 8, !tbaa !303
  %17 = getelementptr inbounds nuw %"class.cv::Matx.27", ptr %16, i32 0, i32 0
  %18 = load i32, ptr %9, align 4, !tbaa !8
  %19 = sext i32 %18 to i64
  %20 = getelementptr inbounds [3 x float], ptr %17, i64 0, i64 %19
  %21 = load float, ptr %20, align 4, !tbaa !15
  %22 = load ptr, ptr %7, align 8, !tbaa !303
  %23 = getelementptr inbounds nuw %"class.cv::Matx.27", ptr %22, i32 0, i32 0
  %24 = load i32, ptr %9, align 4, !tbaa !8
  %25 = sext i32 %24 to i64
  %26 = getelementptr inbounds [3 x float], ptr %23, i64 0, i64 %25
  %27 = load float, ptr %26, align 4, !tbaa !15
  %28 = fsub float %21, %27
  %29 = call noundef float @_ZN2cvL13saturate_castIfEET_f(float noundef %28)
  %30 = getelementptr inbounds nuw %"class.cv::Matx.27", ptr %10, i32 0, i32 0
  %31 = load i32, ptr %9, align 4, !tbaa !8
  %32 = sext i32 %31 to i64
  %33 = getelementptr inbounds [3 x float], ptr %30, i64 0, i64 %32
  store float %29, ptr %33, align 4, !tbaa !15
  br label %34

34:                                               ; preds = %15
  %35 = load i32, ptr %9, align 4, !tbaa !8
  %36 = add nsw i32 %35, 1
  store i32 %36, ptr %9, align 4, !tbaa !8
  br label %11, !llvm.loop !346

37:                                               ; preds = %14
  ret void
}

; Function Attrs: mustprogress nounwind uwtable
define linkonce_odr hidden void @_ZN2cv10Matx_SubOpC2ERKS0_(ptr noundef nonnull align 1 dereferenceable(1) %0, ptr noundef nonnull align 1 dereferenceable(1) %1) unnamed_addr #5 comdat align 2 {
  %3 = alloca ptr, align 8
  %4 = alloca ptr, align 8
  store ptr %0, ptr %3, align 8, !tbaa !344
  store ptr %1, ptr %4, align 8, !tbaa !344
  ret void
}

; Function Attrs: inlinehint mustprogress nounwind uwtable
define linkonce_odr noundef float @_ZSt4sqrtf(float noundef %0) #1 comdat {
  %2 = alloca float, align 4
  store float %0, ptr %2, align 4, !tbaa !15
  %3 = load float, ptr %2, align 4, !tbaa !15
  %4 = call float @sqrtf(float noundef %3) #22, !tbaa !8
  ret float %4
}

; Function Attrs: inlinehint mustprogress nounwind uwtable
define linkonce_odr hidden noundef float @_ZNK2cv4MatxIfLi3ELi1EE3dotERKS1_(ptr noundef nonnull align 4 dereferenceable(12) %0, ptr noundef nonnull align 4 dereferenceable(12) %1) #1 comdat align 2 {
  %3 = alloca ptr, align 8
  %4 = alloca ptr, align 8
  %5 = alloca float, align 4
  %6 = alloca i32, align 4
  store ptr %0, ptr %3, align 8, !tbaa !303
  store ptr %1, ptr %4, align 8, !tbaa !303
  %7 = load ptr, ptr %3, align 8
  call void @llvm.lifetime.start.p0(i64 4, ptr %5) #22
  store float 0.000000e+00, ptr %5, align 4, !tbaa !15
  call void @llvm.lifetime.start.p0(i64 4, ptr %6) #22
  store i32 0, ptr %6, align 4, !tbaa !8
  br label %8

8:                                                ; preds = %26, %2
  %9 = load i32, ptr %6, align 4, !tbaa !8
  %10 = icmp slt i32 %9, 3
  br i1 %10, label %12, label %11

11:                                               ; preds = %8
  call void @llvm.lifetime.end.p0(i64 4, ptr %6) #22
  br label %29

12:                                               ; preds = %8
  %13 = getelementptr inbounds nuw %"class.cv::Matx.27", ptr %7, i32 0, i32 0
  %14 = load i32, ptr %6, align 4, !tbaa !8
  %15 = sext i32 %14 to i64
  %16 = getelementptr inbounds [3 x float], ptr %13, i64 0, i64 %15
  %17 = load float, ptr %16, align 4, !tbaa !15
  %18 = load ptr, ptr %4, align 8, !tbaa !303
  %19 = getelementptr inbounds nuw %"class.cv::Matx.27", ptr %18, i32 0, i32 0
  %20 = load i32, ptr %6, align 4, !tbaa !8
  %21 = sext i32 %20 to i64
  %22 = getelementptr inbounds [3 x float], ptr %19, i64 0, i64 %21
  %23 = load float, ptr %22, align 4, !tbaa !15
  %24 = load float, ptr %5, align 4, !tbaa !15
  %25 = call float @llvm.fmuladd.f32(float %17, float %23, float %24)
  store float %25, ptr %5, align 4, !tbaa !15
  br label %26

26:                                               ; preds = %12
  %27 = load i32, ptr %6, align 4, !tbaa !8
  %28 = add nsw i32 %27, 1
  store i32 %28, ptr %6, align 4, !tbaa !8
  br label %8, !llvm.loop !305

29:                                               ; preds = %11
  %30 = load float, ptr %5, align 4, !tbaa !15
  call void @llvm.lifetime.end.p0(i64 4, ptr %5) #22
  ret float %30
}

; Function Attrs: inlinehint mustprogress nounwind uwtable
define linkonce_odr hidden void @_ZN2cv4MatxIfLi3ELi1EEC2EPKf(ptr noundef nonnull align 4 dereferenceable(12) %0, ptr noundef %1) unnamed_addr #1 comdat align 2 {
  %3 = alloca ptr, align 8
  %4 = alloca ptr, align 8
  %5 = alloca i32, align 4
  store ptr %0, ptr %3, align 8, !tbaa !303
  store ptr %1, ptr %4, align 8, !tbaa !169
  %6 = load ptr, ptr %3, align 8
  call void @llvm.lifetime.start.p0(i64 4, ptr %5) #22
  store i32 0, ptr %5, align 4, !tbaa !8
  br label %7

7:                                                ; preds = %21, %2
  %8 = load i32, ptr %5, align 4, !tbaa !8
  %9 = icmp slt i32 %8, 3
  br i1 %9, label %11, label %10

10:                                               ; preds = %7
  call void @llvm.lifetime.end.p0(i64 4, ptr %5) #22
  br label %24

11:                                               ; preds = %7
  %12 = load ptr, ptr %4, align 8, !tbaa !169
  %13 = load i32, ptr %5, align 4, !tbaa !8
  %14 = sext i32 %13 to i64
  %15 = getelementptr inbounds float, ptr %12, i64 %14
  %16 = load float, ptr %15, align 4, !tbaa !15
  %17 = getelementptr inbounds nuw %"class.cv::Matx.27", ptr %6, i32 0, i32 0
  %18 = load i32, ptr %5, align 4, !tbaa !8
  %19 = sext i32 %18 to i64
  %20 = getelementptr inbounds [3 x float], ptr %17, i64 0, i64 %19
  store float %16, ptr %20, align 4, !tbaa !15
  br label %21

21:                                               ; preds = %11
  %22 = load i32, ptr %5, align 4, !tbaa !8
  %23 = add nsw i32 %22, 1
  store i32 %23, ptr %5, align 4, !tbaa !8
  br label %7, !llvm.loop !326

24:                                               ; preds = %10
  ret void
}

; Function Attrs: inlinehint mustprogress uwtable
define linkonce_odr hidden void @_ZN2cv3VecIfLi3EEC2ERKNS_4MatxIfLi3ELi1EEES5_NS_10Matx_SubOpE(ptr noundef nonnull align 4 dereferenceable(12) %0, ptr noundef nonnull align 4 dereferenceable(12) %1, ptr noundef nonnull align 4 dereferenceable(12) %2, ptr noundef %3) unnamed_addr #4 comdat align 2 {
  %5 = alloca ptr, align 8
  %6 = alloca ptr, align 8
  %7 = alloca ptr, align 8
  %8 = alloca ptr, align 8
  %9 = alloca %"struct.cv::Matx_SubOp", align 1
  store ptr %0, ptr %5, align 8, !tbaa !102
  store ptr %1, ptr %6, align 8, !tbaa !303
  store ptr %2, ptr %7, align 8, !tbaa !303
  store ptr %3, ptr %8, align 8, !tbaa !344
  %10 = load ptr, ptr %5, align 8
  %11 = load ptr, ptr %6, align 8, !tbaa !303
  %12 = load ptr, ptr %7, align 8, !tbaa !303
  call void @_ZN2cv10Matx_SubOpC2ERKS0_(ptr noundef nonnull align 1 dereferenceable(1) %9, ptr noundef nonnull align 1 dereferenceable(1) %3)
  call void @_ZN2cv4MatxIfLi3ELi1EEC2ERKS1_S3_NS_10Matx_SubOpE(ptr noundef nonnull align 4 dereferenceable(12) %10, ptr noundef nonnull align 4 dereferenceable(12) %11, ptr noundef nonnull align 4 dereferenceable(12) %12, ptr noundef %9)
  ret void
}

; Function Attrs: mustprogress nounwind uwtable
define linkonce_odr hidden void @_ZN2cv10Matx_SubOpC2Ev(ptr noundef nonnull align 1 dereferenceable(1) %0) unnamed_addr #5 comdat align 2 {
  %2 = alloca ptr, align 8
  store ptr %0, ptr %2, align 8, !tbaa !344
  ret void
}

; Function Attrs: inlinehint mustprogress nounwind uwtable
define linkonce_odr hidden void @_ZN2cv4MatxIfLi4ELi1EEC2Ev(ptr noundef nonnull align 4 dereferenceable(16) %0) unnamed_addr #1 comdat align 2 {
  %2 = alloca ptr, align 8
  %3 = alloca i32, align 4
  store ptr %0, ptr %2, align 8, !tbaa !370
  %4 = load ptr, ptr %2, align 8
  call void @llvm.lifetime.start.p0(i64 4, ptr %3) #22
  store i32 0, ptr %3, align 4, !tbaa !8
  br label %5

5:                                                ; preds = %14, %1
  %6 = load i32, ptr %3, align 4, !tbaa !8
  %7 = icmp slt i32 %6, 4
  br i1 %7, label %9, label %8

8:                                                ; preds = %5
  call void @llvm.lifetime.end.p0(i64 4, ptr %3) #22
  br label %17

9:                                                ; preds = %5
  %10 = getelementptr inbounds nuw %"class.cv::Matx.25", ptr %4, i32 0, i32 0
  %11 = load i32, ptr %3, align 4, !tbaa !8
  %12 = sext i32 %11 to i64
  %13 = getelementptr inbounds [4 x float], ptr %10, i64 0, i64 %12
  store float 0.000000e+00, ptr %13, align 4, !tbaa !15
  br label %14

14:                                               ; preds = %9
  %15 = load i32, ptr %3, align 4, !tbaa !8
  %16 = add nsw i32 %15, 1
  store i32 %16, ptr %3, align 4, !tbaa !8
  br label %5, !llvm.loop !372

17:                                               ; preds = %8
  ret void
}

; Function Attrs: inlinehint mustprogress uwtable
define linkonce_odr hidden noundef float @_ZN2cv3hfs7HfsCore16getEulerDistanceENS_3VecIfLi3EEES3_(ptr noundef nonnull align 8 dereferenceable(104) %0, ptr noundef %1, ptr noundef %2) #4 comdat align 2 {
  %4 = alloca ptr, align 8
  %5 = alloca ptr, align 8
  %6 = alloca ptr, align 8
  %7 = alloca %"class.cv::Vec.26", align 4
  store ptr %0, ptr %4, align 8, !tbaa !13
  store ptr %1, ptr %5, align 8, !tbaa !102
  store ptr %2, ptr %6, align 8, !tbaa !102
  call void @llvm.lifetime.start.p0(i64 12, ptr %7) #22
  call void @_ZN2cvmiIfLi3EEENS_3VecIT_XT0_EEERKS3_S5_(ptr dead_on_unwind writable sret(%"class.cv::Vec.26") align 4 %7, ptr noundef nonnull align 4 dereferenceable(12) %1, ptr noundef nonnull align 4 dereferenceable(12) %2)
  %8 = call noundef float @_ZNK2cv4MatxIfLi3ELi1EE3dotERKS1_(ptr noundef nonnull align 4 dereferenceable(12) %7, ptr noundef nonnull align 4 dereferenceable(12) %7)
  %9 = call noundef float @_ZSt4sqrtf(float noundef %8)
  call void @llvm.lifetime.end.p0(i64 12, ptr %7) #22
  ret float %9
}

; Function Attrs: inlinehint mustprogress uwtable
define linkonce_odr hidden void @_ZN2cv3VecIfLi3EEC2ERKS1_(ptr noundef nonnull align 4 dereferenceable(12) %0, ptr noundef nonnull align 4 dereferenceable(12) %1) unnamed_addr #4 comdat align 2 {
  %3 = alloca ptr, align 8
  %4 = alloca ptr, align 8
  store ptr %0, ptr %3, align 8, !tbaa !102
  store ptr %1, ptr %4, align 8, !tbaa !102
  %5 = load ptr, ptr %3, align 8
  %6 = load ptr, ptr %4, align 8, !tbaa !102
  %7 = getelementptr inbounds nuw %"class.cv::Matx.27", ptr %6, i32 0, i32 0
  %8 = getelementptr inbounds [3 x float], ptr %7, i64 0, i64 0
  call void @_ZN2cv4MatxIfLi3ELi1EEC2EPKf(ptr noundef nonnull align 4 dereferenceable(12) %5, ptr noundef %8)
  ret void
}

; Function Attrs: inlinehint mustprogress nounwind uwtable
define linkonce_odr hidden noundef nonnull align 4 dereferenceable(4) ptr @_ZN2cv3VecIfLi4EEixEi(ptr noundef nonnull align 4 dereferenceable(16) %0, i32 noundef %1) #1 comdat align 2 {
  %3 = alloca ptr, align 8
  %4 = alloca i32, align 4
  store ptr %0, ptr %3, align 8, !tbaa !104
  store i32 %1, ptr %4, align 4, !tbaa !8
  %5 = load ptr, ptr %3, align 8
  %6 = getelementptr inbounds nuw %"class.cv::Matx.25", ptr %5, i32 0, i32 0
  %7 = load i32, ptr %4, align 4, !tbaa !8
  %8 = sext i32 %7 to i64
  %9 = getelementptr inbounds [4 x float], ptr %6, i64 0, i64 %8
  ret ptr %9
}

; Function Attrs: inlinehint mustprogress nounwind uwtable
define linkonce_odr noundef float @_ZSt3absf(float noundef %0) #1 comdat {
  %2 = alloca float, align 4
  store float %0, ptr %2, align 4, !tbaa !15
  %3 = load float, ptr %2, align 4, !tbaa !15
  %4 = call float @llvm.fabs.f32(float %3)
  ret float %4
}

; Function Attrs: inlinehint mustprogress nounwind uwtable
define linkonce_odr hidden noundef nonnull align 4 dereferenceable(4) ptr @_ZN2cv3VecIfLi3EEixEi(ptr noundef nonnull align 4 dereferenceable(12) %0, i32 noundef %1) #1 comdat align 2 {
  %3 = alloca ptr, align 8
  %4 = alloca i32, align 4
  store ptr %0, ptr %3, align 8, !tbaa !102
  store i32 %1, ptr %4, align 4, !tbaa !8
  %5 = load ptr, ptr %3, align 8
  %6 = getelementptr inbounds nuw %"class.cv::Matx.27", ptr %5, i32 0, i32 0
  %7 = load i32, ptr %4, align 4, !tbaa !8
  %8 = sext i32 %7 to i64
  %9 = getelementptr inbounds [3 x float], ptr %6, i64 0, i64 %8
  ret ptr %9
}

; Function Attrs: inlinehint mustprogress uwtable
define internal void @_ZN2cvmiIfLi3EEENS_3VecIT_XT0_EEERKS3_S5_(ptr dead_on_unwind noalias writable sret(%"class.cv::Vec.26") align 4 %0, ptr noundef nonnull align 4 dereferenceable(12) %1, ptr noundef nonnull align 4 dereferenceable(12) %2) #4 {
  %4 = alloca ptr, align 8
  %5 = alloca ptr, align 8
  %6 = alloca ptr, align 8
  %7 = alloca %"struct.cv::Matx_SubOp", align 1
  store ptr %0, ptr %4, align 8
  store ptr %1, ptr %5, align 8, !tbaa !102
  store ptr %2, ptr %6, align 8, !tbaa !102
  %8 = load ptr, ptr %5, align 8, !tbaa !102
  %9 = load ptr, ptr %6, align 8, !tbaa !102
  call void @_ZN2cv10Matx_SubOpC2Ev(ptr noundef nonnull align 1 dereferenceable(1) %7)
  call void @_ZN2cv3VecIfLi3EEC2ERKNS_4MatxIfLi3ELi1EEES5_NS_10Matx_SubOpE(ptr noundef nonnull align 4 dereferenceable(12) %0, ptr noundef nonnull align 4 dereferenceable(12) %8, ptr noundef nonnull align 4 dereferenceable(12) %9, ptr noundef %7)
  ret void
}

; Function Attrs: inlinehint mustprogress uwtable
define linkonce_odr hidden void @_ZN2cv3VecIfLi4EEC2Ev(ptr noundef nonnull align 4 dereferenceable(16) %0) unnamed_addr #4 comdat align 2 {
  %2 = alloca ptr, align 8
  store ptr %0, ptr %2, align 8, !tbaa !104
  %3 = load ptr, ptr %2, align 8
  call void @_ZN2cv4MatxIfLi4ELi1EEC2Ev(ptr noundef nonnull align 4 dereferenceable(16) %3)
  ret void
}

; Function Attrs: mustprogress uwtable
define hidden void @_ZN2cv3hfs7HfsCore15getColorFeatureERKNS_3VecIfLi3EEES5_(ptr dead_on_unwind noalias writable sret(%"class.cv::Vec.24") align 4 %0, ptr noundef nonnull align 8 dereferenceable(104) %1, ptr noundef nonnull align 4 dereferenceable(12) %2, ptr noundef nonnull align 4 dereferenceable(12) %3) #3 align 2 {
  %5 = alloca ptr, align 8
  %6 = alloca ptr, align 8
  %7 = alloca ptr, align 8
  %8 = alloca ptr, align 8
  %9 = alloca %"class.cv::Vec.26", align 4
  %10 = alloca %"class.cv::Vec.26", align 4
  %11 = alloca %"class.cv::Vec.26", align 4
  store ptr %0, ptr %5, align 8
  store ptr %1, ptr %6, align 8, !tbaa !13
  store ptr %2, ptr %7, align 8, !tbaa !102
  store ptr %3, ptr %8, align 8, !tbaa !102
  %12 = load ptr, ptr %6, align 8
  call void @_ZN2cv3VecIfLi4EEC2Ev(ptr noundef nonnull align 4 dereferenceable(16) %0)
  call void @llvm.lifetime.start.p0(i64 12, ptr %9) #22
  %13 = load ptr, ptr %7, align 8, !tbaa !102
  %14 = load ptr, ptr %8, align 8, !tbaa !102
  call void @_ZN2cvmiIfLi3EEENS_3VecIT_XT0_EEERKS3_S5_(ptr dead_on_unwind writable sret(%"class.cv::Vec.26") align 4 %9, ptr noundef nonnull align 4 dereferenceable(12) %13, ptr noundef nonnull align 4 dereferenceable(12) %14)
  %15 = call noundef nonnull align 4 dereferenceable(4) ptr @_ZN2cv3VecIfLi3EEixEi(ptr noundef nonnull align 4 dereferenceable(12) %9, i32 noundef 0)
  %16 = load float, ptr %15, align 4, !tbaa !15
  %17 = call noundef float @_ZSt3absf(float noundef %16)
  %18 = call noundef nonnull align 4 dereferenceable(4) ptr @_ZN2cv3VecIfLi4EEixEi(ptr noundef nonnull align 4 dereferenceable(16) %0, i32 noundef 0)
  store float %17, ptr %18, align 4, !tbaa !15
  %19 = call noundef nonnull align 4 dereferenceable(4) ptr @_ZN2cv3VecIfLi3EEixEi(ptr noundef nonnull align 4 dereferenceable(12) %9, i32 noundef 1)
  %20 = load float, ptr %19, align 4, !tbaa !15
  %21 = call noundef float @_ZSt3absf(float noundef %20)
  %22 = call noundef nonnull align 4 dereferenceable(4) ptr @_ZN2cv3VecIfLi4EEixEi(ptr noundef nonnull align 4 dereferenceable(16) %0, i32 noundef 1)
  store float %21, ptr %22, align 4, !tbaa !15
  %23 = call noundef nonnull align 4 dereferenceable(4) ptr @_ZN2cv3VecIfLi3EEixEi(ptr noundef nonnull align 4 dereferenceable(12) %9, i32 noundef 2)
  %24 = load float, ptr %23, align 4, !tbaa !15
  %25 = call noundef float @_ZSt3absf(float noundef %24)
  %26 = call noundef nonnull align 4 dereferenceable(4) ptr @_ZN2cv3VecIfLi4EEixEi(ptr noundef nonnull align 4 dereferenceable(16) %0, i32 noundef 2)
  store float %25, ptr %26, align 4, !tbaa !15
  %27 = load ptr, ptr %7, align 8, !tbaa !102
  call void @_ZN2cv3VecIfLi3EEC2ERKS1_(ptr noundef nonnull align 4 dereferenceable(12) %10, ptr noundef nonnull align 4 dereferenceable(12) %27)
  %28 = load ptr, ptr %8, align 8, !tbaa !102
  call void @_ZN2cv3VecIfLi3EEC2ERKS1_(ptr noundef nonnull align 4 dereferenceable(12) %11, ptr noundef nonnull align 4 dereferenceable(12) %28)
  %29 = call noundef float @_ZN2cv3hfs7HfsCore16getEulerDistanceENS_3VecIfLi3EEES3_(ptr noundef nonnull align 8 dereferenceable(104) %12, ptr noundef %10, ptr noundef %11)
  %30 = call noundef nonnull align 4 dereferenceable(4) ptr @_ZN2cv3VecIfLi4EEixEi(ptr noundef nonnull align 4 dereferenceable(16) %0, i32 noundef 3)
  store float %29, ptr %30, align 4, !tbaa !15
  call void @llvm.lifetime.end.p0(i64 12, ptr %9) #22
  ret void
}