; Function Attrs: mustprogress nofree nounwind memory(write, argmem: readwrite, inaccessiblemem: readwrite) uwtable
define hidden void @_ZN2cv3hfs7HfsCore15getColorFeatureERKNS_3VecIfLi3EEES5_(ptr dead_on_unwind noalias writable writeonly sret(%"class.cv::Vec.24") align 4 captures(none) %0, ptr noundef nonnull readnone align 8 captures(none) dereferenceable(104) %1, ptr noundef nonnull readonly align 4 captures(none) dereferenceable(12) %2, ptr noundef nonnull readonly align 4 captures(none) dereferenceable(12) %3) local_unnamed_addr #10 align 2 {
  %5 = alloca %"class.cv::Vec.26", align 4
  %6 = alloca %"class.cv::Vec.26", align 4
  %7 = alloca %"class.cv::Vec.26", align 4
  %8 = alloca %"class.cv::Vec.26", align 4
  call void @llvm.lifetime.start.p0(i64 12, ptr nonnull %6) #24
  tail call void @llvm.experimental.noalias.scope.decl(metadata !86)
  br label %9

9:                                                ; preds = %9, %4
  %indvars.iv.i.i.i = phi i64 [ 0, %4 ], [ %indvars.iv.next.i.i.i, %9 ]
  %10 = getelementptr inbounds nuw [3 x float], ptr %2, i64 0, i64 %indvars.iv.i.i.i
  %11 = load float, ptr %10, align 4, !tbaa !89, !noalias !86
  %12 = getelementptr inbounds nuw [3 x float], ptr %3, i64 0, i64 %indvars.iv.i.i.i
  %13 = load float, ptr %12, align 4, !tbaa !89, !noalias !86
  %14 = fsub float %11, %13
  %15 = getelementptr inbounds nuw [3 x float], ptr %6, i64 0, i64 %indvars.iv.i.i.i
  store float %14, ptr %15, align 4, !tbaa !89, !alias.scope !86
  %indvars.iv.next.i.i.i = add nuw nsw i64 %indvars.iv.i.i.i, 1
  %exitcond.not.i.i.i = icmp eq i64 %indvars.iv.next.i.i.i, 3
  br i1 %exitcond.not.i.i.i, label %_ZN2cvmiIfLi3EEENS_3VecIT_XT0_EEERKS3_S5_.exit, label %9, !llvm.loop !90

_ZN2cvmiIfLi3EEENS_3VecIT_XT0_EEERKS3_S5_.exit:   ; preds = %9
  %16 = load float, ptr %6, align 4, !tbaa !89
  %17 = tail call noundef float @llvm.fabs.f32(float %16)
  store float %17, ptr %0, align 4, !tbaa !89
  %18 = getelementptr inbounds nuw i8, ptr %6, i64 4
  %19 = load float, ptr %18, align 4, !tbaa !89
  %20 = tail call noundef float @llvm.fabs.f32(float %19)
  %21 = getelementptr inbounds nuw i8, ptr %0, i64 4
  store float %20, ptr %21, align 4, !tbaa !89
  %22 = getelementptr inbounds nuw i8, ptr %6, i64 8
  %23 = load float, ptr %22, align 4, !tbaa !89
  %24 = tail call noundef float @llvm.fabs.f32(float %23)
  %25 = getelementptr inbounds nuw i8, ptr %0, i64 8
  store float %24, ptr %25, align 4, !tbaa !89
  call void @llvm.memcpy.p0.p0.i64(ptr noundef nonnull align 4 dereferenceable(12) %7, ptr noundef nonnull align 4 dereferenceable(12) %2, i64 12, i1 false), !tbaa !89
  call void @llvm.memcpy.p0.p0.i64(ptr noundef nonnull align 4 dereferenceable(12) %8, ptr noundef nonnull align 4 dereferenceable(12) %3, i64 12, i1 false), !tbaa !89
  call void @llvm.lifetime.start.p0(i64 12, ptr nonnull %5) #24
  tail call void @llvm.experimental.noalias.scope.decl(metadata !91)
  br label %26

26:                                               ; preds = %26, %_ZN2cvmiIfLi3EEENS_3VecIT_XT0_EEERKS3_S5_.exit
  %indvars.iv.i.i.i.i = phi i64 [ 0, %_ZN2cvmiIfLi3EEENS_3VecIT_XT0_EEERKS3_S5_.exit ], [ %indvars.iv.next.i.i.i.i, %26 ]
  %27 = getelementptr inbounds nuw [3 x float], ptr %7, i64 0, i64 %indvars.iv.i.i.i.i
  %28 = load float, ptr %27, align 4, !tbaa !89, !noalias !91
  %29 = getelementptr inbounds nuw [3 x float], ptr %8, i64 0, i64 %indvars.iv.i.i.i.i
  %30 = load float, ptr %29, align 4, !tbaa !89, !noalias !91
  %31 = fsub float %28, %30
  %32 = getelementptr inbounds nuw [3 x float], ptr %5, i64 0, i64 %indvars.iv.i.i.i.i
  store float %31, ptr %32, align 4, !tbaa !89, !alias.scope !91
  %indvars.iv.next.i.i.i.i = add nuw nsw i64 %indvars.iv.i.i.i.i, 1
  %exitcond.not.i.i.i.i = icmp eq i64 %indvars.iv.next.i.i.i.i, 3
  br i1 %exitcond.not.i.i.i.i, label %_ZN2cvmiIfLi3EEENS_3VecIT_XT0_EEERKS3_S5_.exit.i, label %26, !llvm.loop !90

_ZN2cvmiIfLi3EEENS_3VecIT_XT0_EEERKS3_S5_.exit.i: ; preds = %26, %_ZN2cvmiIfLi3EEENS_3VecIT_XT0_EEERKS3_S5_.exit.i
  %indvars.iv.i.i9 = phi i64 [ %indvars.iv.next.i.i10, %_ZN2cvmiIfLi3EEENS_3VecIT_XT0_EEERKS3_S5_.exit.i ], [ 0, %26 ]
  %.078.i.i = phi float [ %35, %_ZN2cvmiIfLi3EEENS_3VecIT_XT0_EEERKS3_S5_.exit.i ], [ 0.000000e+00, %26 ]
  %33 = getelementptr inbounds nuw [3 x float], ptr %5, i64 0, i64 %indvars.iv.i.i9
  %34 = load float, ptr %33, align 4, !tbaa !89
  %35 = tail call float @llvm.fmuladd.f32(float %34, float %34, float %.078.i.i)
  %indvars.iv.next.i.i10 = add nuw nsw i64 %indvars.iv.i.i9, 1
  %exitcond.not.i.i11 = icmp eq i64 %indvars.iv.next.i.i10, 3
  br i1 %exitcond.not.i.i11, label %_ZN2cv3hfs7HfsCore16getEulerDistanceENS_3VecIfLi3EEES3_.exit, label %_ZN2cvmiIfLi3EEENS_3VecIT_XT0_EEERKS3_S5_.exit.i, !llvm.loop !94

_ZN2cv3hfs7HfsCore16getEulerDistanceENS_3VecIfLi3EEES3_.exit: ; preds = %_ZN2cvmiIfLi3EEENS_3VecIT_XT0_EEERKS3_S5_.exit.i
  %36 = tail call noundef float @sqrtf(float noundef %35) #24, !tbaa !45
  call void @llvm.lifetime.end.p0(i64 12, ptr nonnull %5) #24
  %37 = getelementptr inbounds nuw i8, ptr %0, i64 12
  store float %36, ptr %37, align 4, !tbaa !89
  call void @llvm.lifetime.end.p0(i64 12, ptr nonnull %6) #24
  ret void
}